target datalayout = "e-m:e-p270:32:32-p271:32:32-p272:64:64-i64:64-i128:128-f80:128-n8:16:32:64-S128"
target triple = "x86_64-pc-linux-gnu"

%struct.SDL_AudioQueue = type { ptr, ptr, ptr, i64, i64, %struct.SDL_MemoryPool, %struct.SDL_MemoryPool }
%struct.SDL_MemoryPool = type { ptr, i64, i64, i64 }
%struct.SDL_AudioTrack = type { %struct.SDL_AudioSpec, ptr, i8, ptr, ptr, ptr, ptr, i64, i64, i64, [8 x i32] }
%struct.SDL_AudioSpec = type { i32, i32, i32 }

; Function Attrs: nounwind uwtable
define internal void @FlushAudioTrack(ptr noundef %0) #0 {
  %2 = alloca ptr, align 8
  store ptr %0, ptr %2, align 8
  %3 = load ptr, ptr %2, align 8
  %4 = getelementptr inbounds nuw %struct.SDL_AudioTrack, ptr %3, i32 0, i32 2
  store i8 1, ptr %4, align 8
  ret void
}

; Function Attrs: nounwind uwtable
define hidden void @SDL_AddTrackToAudioQueue(ptr noundef %0, ptr noundef %1) #0 {
  %3 = alloca ptr, align 8
  %4 = alloca ptr, align 8
  %5 = alloca ptr, align 8
  store ptr %0, ptr %3, align 8
  store ptr %1, ptr %4, align 8
  call void @llvm.lifetime.start.p0(i64 8, ptr %5) #6
  %6 = load ptr, ptr %3, align 8
  %7 = getelementptr inbounds nuw %struct.SDL_AudioQueue, ptr %6, i32 0, i32 1
  %8 = load ptr, ptr %7, align 8
  store ptr %8, ptr %5, align 8
  %9 = load ptr, ptr %5, align 8
  %10 = icmp ne ptr %9, null
  br i1 %10, label %11, label %29

11:                                               ; preds = %2
  %12 = load ptr, ptr %5, align 8
  %13 = getelementptr inbounds nuw %struct.SDL_AudioTrack, ptr %12, i32 0, i32 0
  %14 = load ptr, ptr %4, align 8
  %15 = getelementptr inbounds nuw %struct.SDL_AudioTrack, ptr %14, i32 0, i32 0
  %16 = load ptr, ptr %5, align 8
  %17 = getelementptr inbounds nuw %struct.SDL_AudioTrack, ptr %16, i32 0, i32 1
  %18 = load ptr, ptr %17, align 8
  %19 = load ptr, ptr %4, align 8
  %20 = getelementptr inbounds nuw %struct.SDL_AudioTrack, ptr %19, i32 0, i32 1
  %21 = load ptr, ptr %20, align 8
  %22 = call zeroext i1 @SDL_AudioSpecsEqual(ptr noundef %13, ptr noundef %15, ptr noundef %18, ptr noundef %21)
  br i1 %22, label %25, label %23

23:                                               ; preds = %11
  %24 = load ptr, ptr %5, align 8
  call void @FlushAudioTrack(ptr noundef %24)
  br label %25

25:                                               ; preds = %23, %11
  %26 = load ptr, ptr %4, align 8
  %27 = load ptr, ptr %5, align 8
  %28 = getelementptr inbounds nuw %struct.SDL_AudioTrack, ptr %27, i32 0, i32 3
  store ptr %26, ptr %28, align 8
  br label %33

29:                                               ; preds = %2
  %30 = load ptr, ptr %4, align 8
  %31 = load ptr, ptr %3, align 8
  %32 = getelementptr inbounds nuw %struct.SDL_AudioQueue, ptr %31, i32 0, i32 0
  store ptr %30, ptr %32, align 8
  br label %33

33:                                               ; preds = %29, %25
  %34 = load ptr, ptr %4, align 8
  %35 = load ptr, ptr %3, align 8
  %36 = getelementptr inbounds nuw %struct.SDL_AudioQueue, ptr %35, i32 0, i32 1
  store ptr %34, ptr %36, align 8
  call void @llvm.lifetime.end.p0(i64 8, ptr %5) #6
  ret void
}