; Function Attrs: nounwind uwtable
define hidden void @SDL_AddTrackToAudioQueue(ptr noundef captures(none) %0, ptr noundef %1) local_unnamed_addr #0 {
  %3 = getelementptr inbounds nuw i8, ptr %0, i64 8
  %4 = load ptr, ptr %3, align 8
  %.not = icmp eq ptr %4, null
  br i1 %.not, label %15, label %5

5:                                                ; preds = %2
  %6 = getelementptr inbounds nuw i8, ptr %4, i64 16
  %7 = load ptr, ptr %6, align 8
  %8 = getelementptr inbounds nuw i8, ptr %1, i64 16
  %9 = load ptr, ptr %8, align 8
  %10 = tail call zeroext i1 @SDL_AudioSpecsEqual(ptr noundef nonnull %4, ptr noundef %1, ptr noundef %7, ptr noundef %9) #10
  br i1 %10, label %13, label %11

11:                                               ; preds = %5
  %12 = getelementptr inbounds nuw i8, ptr %4, i64 24
  store i8 1, ptr %12, align 8
  br label %13

13:                                               ; preds = %11, %5
  %14 = getelementptr inbounds nuw i8, ptr %4, i64 32
  store ptr %1, ptr %14, align 8
  br label %16

15:                                               ; preds = %2
  store ptr %1, ptr %0, align 8
  br label %16

16:                                               ; preds = %15, %13
  store ptr %1, ptr %3, align 8
  ret void
}